; Function Attrs: nounwind uwtable
define i32 @Java_sun_nio_ch_Net_getInterface4(ptr noundef %0, ptr nocapture noundef readnone %1, ptr noundef %2) local_unnamed_addr #0 {
  %4 = alloca %struct.in_addr, align 4
  %5 = alloca i32, align 4
  store i32 4, ptr %5, align 4
  %6 = tail call i32 @fdval(ptr noundef %0, ptr noundef %2) #7
  %7 = call i32 @getsockopt(i32 noundef %6, i32 noundef 0, i32 noundef 32, ptr noundef nonnull %4, ptr noundef nonnull %5) #7
  %8 = icmp slt i32 %7, 0
  br i1 %8, label %9, label %17

9:                                                ; preds = %3
  %10 = tail call ptr @__errno_location() #6
  %11 = load i32, ptr %10, align 4
  switch i32 %11, label %15 [
    i32 115, label %handleSocketError.exit
    i32 71, label %16
    i32 111, label %12
    i32 110, label %12
    i32 107, label %12
    i32 113, label %13
    i32 98, label %14
    i32 99, label %14
    i32 13, label %14
  ]

12:                                               ; preds = %9, %9, %9
  br label %16

13:                                               ; preds = %9
  br label %16

14:                                               ; preds = %9, %9, %9
  br label %16

15:                                               ; preds = %9
  br label %16

16:                                               ; preds = %15, %14, %13, %12, %9
  %.0.i.i = phi ptr [ @.str.3, %15 ], [ @.str.17, %14 ], [ @.str.16, %13 ], [ @.str.15, %12 ], [ @.str.14, %9 ]
  call void @JNU_ThrowByNameWithLastError(ptr noundef %0, ptr noundef nonnull %.0.i.i, ptr noundef nonnull @.str.18) #7
  br label %handleSocketError.exit

17:                                               ; preds = %3
  %18 = load i32, ptr %4, align 4
  %19 = call i32 @ntohl(i32 noundef %18) #6
  br label %handleSocketError.exit

handleSocketError.exit:                           ; preds = %16, %9, %17
  %.0 = phi i32 [ %19, %17 ], [ -1, %9 ], [ -1, %16 ]
  ret i32 %.0
}